; Function Attrs: mustprogress nounwind willreturn uwtable
define internal fastcc void @Vec_IntPushThree(ptr noundef captures(none) %0, i32 noundef %1, i32 noundef %2, i32 noundef %3) unnamed_addr #2 {
  %5 = getelementptr inbounds nuw i8, ptr %0, i64 4
  %6 = load i32, ptr %5, align 4
  %7 = load i32, ptr %0, align 8
  %8 = icmp eq i32 %6, %7
  br i1 %8, label %9, label %.Vec_IntGrow.exit10_crit_edge.i

.Vec_IntGrow.exit10_crit_edge.i:                  ; preds = %4
  %.phi.trans.insert.i = getelementptr inbounds nuw i8, ptr %0, i64 8
  %.pre.i = load ptr, ptr %.phi.trans.insert.i, align 8
  br label %Vec_IntPush.exit

9:                                                ; preds = %4
  %10 = icmp slt i32 %6, 16
  br i1 %10, label %11, label %19

11:                                               ; preds = %9
  %12 = getelementptr inbounds nuw i8, ptr %0, i64 8
  %13 = load ptr, ptr %12, align 8
  %.not9.i.i = icmp eq ptr %13, null
  br i1 %.not9.i.i, label %16, label %14

14:                                               ; preds = %11
  %15 = tail call dereferenceable_or_null(64) ptr @realloc(ptr noundef nonnull %13, i64 noundef 64) #29
  br label %Vec_IntGrow.exit.i

16:                                               ; preds = %11
  %17 = tail call noalias dereferenceable_or_null(64) ptr @malloc(i64 noundef 64) #30
  br label %Vec_IntGrow.exit.i

Vec_IntGrow.exit.i:                               ; preds = %16, %14
  %18 = phi ptr [ %15, %14 ], [ %17, %16 ]
  store ptr %18, ptr %12, align 8
  store i32 16, ptr %0, align 8
  br label %Vec_IntPush.exit

19:                                               ; preds = %9
  %20 = shl nuw nsw i32 %6, 1
  %21 = getelementptr inbounds nuw i8, ptr %0, i64 8
  %22 = load ptr, ptr %21, align 8
  %.not9.i9.i = icmp eq ptr %22, null
  %23 = zext nneg i32 %20 to i64
  %24 = shl nuw nsw i64 %23, 2
  br i1 %.not9.i9.i, label %27, label %25

25:                                               ; preds = %19
  %26 = tail call ptr @realloc(ptr noundef nonnull %22, i64 noundef %24) #29
  br label %29

27:                                               ; preds = %19
  %28 = tail call noalias ptr @malloc(i64 noundef %24) #30
  br label %29

29:                                               ; preds = %27, %25
  %30 = phi ptr [ %26, %25 ], [ %28, %27 ]
  store ptr %30, ptr %21, align 8
  store i32 %20, ptr %0, align 8
  br label %Vec_IntPush.exit

Vec_IntPush.exit:                                 ; preds = %.Vec_IntGrow.exit10_crit_edge.i, %Vec_IntGrow.exit.i, %29
  %31 = phi ptr [ %.pre.i, %.Vec_IntGrow.exit10_crit_edge.i ], [ %30, %29 ], [ %18, %Vec_IntGrow.exit.i ]
  %32 = load i32, ptr %5, align 4
  %33 = add nsw i32 %32, 1
  store i32 %33, ptr %5, align 4
  %34 = sext i32 %32 to i64
  %35 = getelementptr inbounds i32, ptr %31, i64 %34
  store i32 %1, ptr %35, align 4
  %36 = load i32, ptr %5, align 4
  %37 = load i32, ptr %0, align 8
  %38 = icmp eq i32 %36, %37
  br i1 %38, label %39, label %.Vec_IntGrow.exit10_crit_edge.i5

.Vec_IntGrow.exit10_crit_edge.i5:                 ; preds = %Vec_IntPush.exit
  %.phi.trans.insert.i6 = getelementptr inbounds nuw i8, ptr %0, i64 8
  %.pre.i7 = load ptr, ptr %.phi.trans.insert.i6, align 8
  br label %Vec_IntPush.exit11

39:                                               ; preds = %Vec_IntPush.exit
  %40 = icmp slt i32 %36, 16
  br i1 %40, label %41, label %49

41:                                               ; preds = %39
  %42 = getelementptr inbounds nuw i8, ptr %0, i64 8
  %43 = load ptr, ptr %42, align 8
  %.not9.i.i9 = icmp eq ptr %43, null
  br i1 %.not9.i.i9, label %46, label %44

44:                                               ; preds = %41
  %45 = tail call dereferenceable_or_null(64) ptr @realloc(ptr noundef nonnull %43, i64 noundef 64) #29
  br label %Vec_IntGrow.exit.i10

46:                                               ; preds = %41
  %47 = tail call noalias dereferenceable_or_null(64) ptr @malloc(i64 noundef 64) #30
  br label %Vec_IntGrow.exit.i10

Vec_IntGrow.exit.i10:                             ; preds = %46, %44
  %48 = phi ptr [ %45, %44 ], [ %47, %46 ]
  store ptr %48, ptr %42, align 8
  store i32 16, ptr %0, align 8
  br label %Vec_IntPush.exit11

49:                                               ; preds = %39
  %50 = shl nuw nsw i32 %36, 1
  %51 = getelementptr inbounds nuw i8, ptr %0, i64 8
  %52 = load ptr, ptr %51, align 8
  %.not9.i9.i8 = icmp eq ptr %52, null
  %53 = zext nneg i32 %50 to i64
  %54 = shl nuw nsw i64 %53, 2
  br i1 %.not9.i9.i8, label %57, label %55

55:                                               ; preds = %49
  %56 = tail call ptr @realloc(ptr noundef nonnull %52, i64 noundef %54) #29
  br label %59

57:                                               ; preds = %49
  %58 = tail call noalias ptr @malloc(i64 noundef %54) #30
  br label %59

59:                                               ; preds = %57, %55
  %60 = phi ptr [ %56, %55 ], [ %58, %57 ]
  store ptr %60, ptr %51, align 8
  store i32 %50, ptr %0, align 8
  br label %Vec_IntPush.exit11

Vec_IntPush.exit11:                               ; preds = %.Vec_IntGrow.exit10_crit_edge.i5, %Vec_IntGrow.exit.i10, %59
  %61 = phi ptr [ %.pre.i7, %.Vec_IntGrow.exit10_crit_edge.i5 ], [ %60, %59 ], [ %48, %Vec_IntGrow.exit.i10 ]
  %62 = load i32, ptr %5, align 4
  %63 = add nsw i32 %62, 1
  store i32 %63, ptr %5, align 4
  %64 = sext i32 %62 to i64
  %65 = getelementptr inbounds i32, ptr %61, i64 %64
  store i32 %2, ptr %65, align 4
  %66 = load i32, ptr %5, align 4
  %67 = load i32, ptr %0, align 8
  %68 = icmp eq i32 %66, %67
  br i1 %68, label %69, label %.Vec_IntGrow.exit10_crit_edge.i12

.Vec_IntGrow.exit10_crit_edge.i12:                ; preds = %Vec_IntPush.exit11
  %.phi.trans.insert.i13 = getelementptr inbounds nuw i8, ptr %0, i64 8
  %.pre.i14 = load ptr, ptr %.phi.trans.insert.i13, align 8
  br label %Vec_IntPush.exit18

69:                                               ; preds = %Vec_IntPush.exit11
  %70 = icmp slt i32 %66, 16
  br i1 %70, label %71, label %79

71:                                               ; preds = %69
  %72 = getelementptr inbounds nuw i8, ptr %0, i64 8
  %73 = load ptr, ptr %72, align 8
  %.not9.i.i16 = icmp eq ptr %73, null
  br i1 %.not9.i.i16, label %76, label %74

74:                                               ; preds = %71
  %75 = tail call dereferenceable_or_null(64) ptr @realloc(ptr noundef nonnull %73, i64 noundef 64) #29
  br label %Vec_IntGrow.exit.i17

76:                                               ; preds = %71
  %77 = tail call noalias dereferenceable_or_null(64) ptr @malloc(i64 noundef 64) #30
  br label %Vec_IntGrow.exit.i17

Vec_IntGrow.exit.i17:                             ; preds = %76, %74
  %78 = phi ptr [ %75, %74 ], [ %77, %76 ]
  store ptr %78, ptr %72, align 8
  store i32 16, ptr %0, align 8
  br label %Vec_IntPush.exit18

79:                                               ; preds = %69
  %80 = shl nuw nsw i32 %66, 1
  %81 = getelementptr inbounds nuw i8, ptr %0, i64 8
  %82 = load ptr, ptr %81, align 8
  %.not9.i9.i15 = icmp eq ptr %82, null
  %83 = zext nneg i32 %80 to i64
  %84 = shl nuw nsw i64 %83, 2
  br i1 %.not9.i9.i15, label %87, label %85

85:                                               ; preds = %79
  %86 = tail call ptr @realloc(ptr noundef nonnull %82, i64 noundef %84) #29
  br label %89

87:                                               ; preds = %79
  %88 = tail call noalias ptr @malloc(i64 noundef %84) #30
  br label %89

89:                                               ; preds = %87, %85
  %90 = phi ptr [ %86, %85 ], [ %88, %87 ]
  store ptr %90, ptr %81, align 8
  store i32 %80, ptr %0, align 8
  br label %Vec_IntPush.exit18

Vec_IntPush.exit18:                               ; preds = %.Vec_IntGrow.exit10_crit_edge.i12, %Vec_IntGrow.exit.i17, %89
  %91 = phi ptr [ %.pre.i14, %.Vec_IntGrow.exit10_crit_edge.i12 ], [ %90, %89 ], [ %78, %Vec_IntGrow.exit.i17 ]
  %92 = load i32, ptr %5, align 4
  %93 = add nsw i32 %92, 1
  store i32 %93, ptr %5, align 4
  %94 = sext i32 %92 to i64
  %95 = getelementptr inbounds i32, ptr %91, i64 %94
  store i32 %3, ptr %95, align 4
  ret void
}